	.text
	.def	 @feat.00;
	.scl	3;
	.type	0;
	.endef
	.globl	@feat.00
.set @feat.00, 0
	.file	"hello.c"
	.def	 sprintf;
	.scl	2;
	.type	32;
	.endef
	.section	.text,"xr",discard,sprintf
	.globl	sprintf                         # -- Begin function sprintf
	.p2align	4, 0x90
sprintf:                                # @sprintf
.seh_proc sprintf
# %bb.0:
	subq	$72, %rsp
	.seh_stackalloc 72
	.seh_endprologue
	movq	%r9, 104(%rsp)
	movq	%r8, 96(%rsp)
	movq	%rdx, 64(%rsp)
	movq	%rcx, 56(%rsp)
	leaq	96(%rsp), %rax
	movq	%rax, 48(%rsp)
	movq	48(%rsp), %r9
	movq	64(%rsp), %rdx
	movq	56(%rsp), %rcx
	xorl	%r8d, %r8d
	callq	_vsprintf_l
	movl	%eax, 44(%rsp)
	movl	44(%rsp), %eax
	addq	$72, %rsp
	retq
	.seh_endproc
                                        # -- End function
	.def	 vsprintf;
	.scl	2;
	.type	32;
	.endef
	.section	.text,"xr",discard,vsprintf
	.globl	vsprintf                        # -- Begin function vsprintf
	.p2align	4, 0x90
vsprintf:                               # @vsprintf
.seh_proc vsprintf
# %bb.0:
	subq	$72, %rsp
	.seh_stackalloc 72
	.seh_endprologue
	movq	%r8, 64(%rsp)
	movq	%rdx, 56(%rsp)
	movq	%rcx, 48(%rsp)
	movq	64(%rsp), %rax
	movq	56(%rsp), %r8
	movq	48(%rsp), %rcx
	movq	$-1, %rdx
	xorl	%r9d, %r9d
	movq	%rax, 32(%rsp)
	callq	_vsnprintf_l
	nop
	addq	$72, %rsp
	retq
	.seh_endproc
                                        # -- End function
	.def	 _snprintf;
	.scl	2;
	.type	32;
	.endef
	.section	.text,"xr",discard,_snprintf
	.globl	_snprintf                       # -- Begin function _snprintf
	.p2align	4, 0x90
_snprintf:                              # @_snprintf
.seh_proc _snprintf
# %bb.0:
	subq	$72, %rsp
	.seh_stackalloc 72
	.seh_endprologue
	movq	%r9, 104(%rsp)
	movq	%r8, 64(%rsp)
	movq	%rdx, 56(%rsp)
	movq	%rcx, 48(%rsp)
	leaq	104(%rsp), %rax
	movq	%rax, 40(%rsp)
	movq	40(%rsp), %r9
	movq	64(%rsp), %r8
	movq	56(%rsp), %rdx
	movq	48(%rsp), %rcx
	callq	_vsnprintf
	movl	%eax, 36(%rsp)
	movl	36(%rsp), %eax
	addq	$72, %rsp
	retq
	.seh_endproc
                                        # -- End function
	.def	 _vsnprintf;
	.scl	2;
	.type	32;
	.endef
	.section	.text,"xr",discard,_vsnprintf
	.globl	_vsnprintf                      # -- Begin function _vsnprintf
	.p2align	4, 0x90
_vsnprintf:                             # @_vsnprintf
.seh_proc _vsnprintf
# %bb.0:
	subq	$72, %rsp
	.seh_stackalloc 72
	.seh_endprologue
	movq	%r9, 64(%rsp)
	movq	%r8, 56(%rsp)
	movq	%rdx, 48(%rsp)
	movq	%rcx, 40(%rsp)
	movq	64(%rsp), %rax
	movq	56(%rsp), %r8
	movq	48(%rsp), %rdx
	movq	40(%rsp), %rcx
	xorl	%r9d, %r9d
	movq	%rax, 32(%rsp)
	callq	_vsnprintf_l
	nop
	addq	$72, %rsp
	retq
	.seh_endproc
                                        # -- End function
	.def	 main;
	.scl	2;
	.type	32;
	.endef
	.text
	.globl	main                            # -- Begin function main
	.p2align	4, 0x90
main:                                   # @main
.seh_proc main
# %bb.0:
	subq	$40, %rsp
	.seh_stackalloc 40
	.seh_endprologue
	movl	$0, 36(%rsp)
	movl	$-10, 32(%rsp)
	movl	32(%rsp), %edx
	leaq	"??_C@_03PMGGPEJJ@?$CFd?6?$AA@"(%rip), %rcx
	callq	printf
	xorl	%eax, %eax
	addq	$40, %rsp
	retq
	.seh_endproc
                                        # -- End function
	.def	 printf;
	.scl	2;
	.type	32;
	.endef
	.section	.text,"xr",discard,printf
	.globl	printf                          # -- Begin function printf
	.p2align	4, 0x90
printf:                                 # @printf
.seh_proc printf
# %bb.0:
	pushq	%rsi
	.seh_pushreg %rsi
	pushq	%rdi
	.seh_pushreg %rdi
	subq	$56, %rsp
	.seh_stackalloc 56
	.seh_endprologue
	movq	%r9, 104(%rsp)
	movq	%r8, 96(%rsp)
	movq	%rdx, 88(%rsp)
	movq	%rcx, 48(%rsp)
	leaq	88(%rsp), %rax
	movq	%rax, 40(%rsp)
	movq	40(%rsp), %rsi
	movq	48(%rsp), %rdi
	movl	$1, %ecx
	callq	__acrt_iob_func
	movq	%rax, %rcx
	movq	%rdi, %rdx
	xorl	%r8d, %r8d
	movq	%rsi, %r9
	callq	_vfprintf_l
	movl	%eax, 36(%rsp)
	movl	36(%rsp), %eax
	addq	$56, %rsp
	popq	%rdi
	popq	%rsi
	retq
	.seh_endproc
                                        # -- End function
	.def	 _vsprintf_l;
	.scl	2;
	.type	32;
	.endef
	.section	.text,"xr",discard,_vsprintf_l
	.globl	_vsprintf_l                     # -- Begin function _vsprintf_l
	.p2align	4, 0x90
_vsprintf_l:                            # @_vsprintf_l
.seh_proc _vsprintf_l
# %bb.0:
	subq	$72, %rsp
	.seh_stackalloc 72
	.seh_endprologue
	movq	%r9, 64(%rsp)
	movq	%r8, 56(%rsp)
	movq	%rdx, 48(%rsp)
	movq	%rcx, 40(%rsp)
	movq	64(%rsp), %rax
	movq	56(%rsp), %r9
	movq	48(%rsp), %r8
	movq	40(%rsp), %rcx
	movq	$-1, %rdx
	movq	%rax, 32(%rsp)
	callq	_vsnprintf_l
	nop
	addq	$72, %rsp
	retq
	.seh_endproc
                                        # -- End function
	.def	 _vsnprintf_l;
	.scl	2;
	.type	32;
	.endef
	.section	.text,"xr",discard,_vsnprintf_l
	.globl	_vsnprintf_l                    # -- Begin function _vsnprintf_l
	.p2align	4, 0x90
_vsnprintf_l:                           # @_vsnprintf_l
.seh_proc _vsnprintf_l
# %bb.0:
	pushq	%r15
	.seh_pushreg %r15
	pushq	%r14
	.seh_pushreg %r14
	pushq	%rsi
	.seh_pushreg %rsi
	pushq	%rdi
	.seh_pushreg %rdi
	pushq	%rbx
	.seh_pushreg %rbx
	subq	$96, %rsp
	.seh_stackalloc 96
	.seh_endprologue
	movq	176(%rsp), %rax
	movq	%r9, 88(%rsp)
	movq	%r8, 80(%rsp)
	movq	%rdx, 72(%rsp)
	movq	%rcx, 64(%rsp)
	movq	176(%rsp), %r14
	movq	88(%rsp), %r15
	movq	80(%rsp), %rsi
	movq	72(%rsp), %rdi
	movq	64(%rsp), %rbx
	callq	__local_stdio_printf_options
	movq	(%rax), %rcx
	orq	$1, %rcx
	movq	%rbx, %rdx
	movq	%rdi, %r8
	movq	%rsi, %r9
	movq	%r15, 32(%rsp)
	movq	%r14, 40(%rsp)
	callq	__stdio_common_vsprintf
	movl	%eax, 60(%rsp)
	cmpl	$0, 60(%rsp)
	jge	.LBB7_2
# %bb.1:
	movl	$4294967295, %eax               # imm = 0xFFFFFFFF
	jmp	.LBB7_3
.LBB7_2:
	movl	60(%rsp), %eax
.LBB7_3:
	addq	$96, %rsp
	popq	%rbx
	popq	%rdi
	popq	%rsi
	popq	%r14
	popq	%r15
	retq
	.seh_endproc
                                        # -- End function
	.def	 __local_stdio_printf_options;
	.scl	2;
	.type	32;
	.endef
	.section	.text,"xr",discard,__local_stdio_printf_options
	.globl	__local_stdio_printf_options    # -- Begin function __local_stdio_printf_options
	.p2align	4, 0x90
__local_stdio_printf_options:           # @__local_stdio_printf_options
# %bb.0:
	leaq	__local_stdio_printf_options._OptionsStorage(%rip), %rax
	retq
                                        # -- End function
	.def	 _vfprintf_l;
	.scl	2;
	.type	32;
	.endef
	.section	.text,"xr",discard,_vfprintf_l
	.globl	_vfprintf_l                     # -- Begin function _vfprintf_l
	.p2align	4, 0x90
_vfprintf_l:                            # @_vfprintf_l
.seh_proc _vfprintf_l
# %bb.0:
	pushq	%r14
	.seh_pushreg %r14
	pushq	%rsi
	.seh_pushreg %rsi
	pushq	%rdi
	.seh_pushreg %rdi
	pushq	%rbx
	.seh_pushreg %rbx
	subq	$72, %rsp
	.seh_stackalloc 72
	.seh_endprologue
	movq	%r9, 64(%rsp)
	movq	%r8, 56(%rsp)
	movq	%rdx, 48(%rsp)
	movq	%rcx, 40(%rsp)
	movq	64(%rsp), %r14
	movq	56(%rsp), %rsi
	movq	48(%rsp), %rdi
	movq	40(%rsp), %rbx
	callq	__local_stdio_printf_options
	movq	(%rax), %rcx
	movq	%rbx, %rdx
	movq	%rdi, %r8
	movq	%rsi, %r9
	movq	%r14, 32(%rsp)
	callq	__stdio_common_vfprintf
	nop
	addq	$72, %rsp
	popq	%rbx
	popq	%rdi
	popq	%rsi
	popq	%r14
	retq
	.seh_endproc
                                        # -- End function
	.section	.rdata,"dr",discard,"??_C@_03PMGGPEJJ@?$CFd?6?$AA@"
	.globl	"??_C@_03PMGGPEJJ@?$CFd?6?$AA@" # @"??_C@_03PMGGPEJJ@?$CFd?6?$AA@"
"??_C@_03PMGGPEJJ@?$CFd?6?$AA@":
	.asciz	"%d\n"

	.lcomm	__local_stdio_printf_options._OptionsStorage,8,8 # @__local_stdio_printf_options._OptionsStorage
